target datalayout = "e-m:e-p270:32:32-p271:32:32-p272:64:64-i64:64-i128:128-f80:128-n8:16:32:64-S128"
target triple = "x86_64-pc-linux-gnu"

%"class.datalog::instruction_block" = type { %class.ptr_vector.154, ptr }
%class.ptr_vector.154 = type { %class.vector.155 }
%class.vector.155 = type { ptr }

; Function Attrs: mustprogress uwtable
define linkonce_odr hidden noundef nonnull align 8 dereferenceable(8) ptr @_ZN6vectorIPN7datalog11instructionELb0EjE9push_backERKS2_(ptr noundef nonnull align 8 dereferenceable(8) %0, ptr noundef nonnull align 8 dereferenceable(8) %1) #4 comdat align 2 {
  %3 = alloca ptr, align 8
  %4 = alloca ptr, align 8
  store ptr %0, ptr %3, align 8, !tbaa !553
  store ptr %1, ptr %4, align 8, !tbaa !555
  %5 = load ptr, ptr %3, align 8
  %6 = getelementptr inbounds nuw %class.vector.155, ptr %5, i32 0, i32 0
  %7 = load ptr, ptr %6, align 8, !tbaa !556
  %8 = icmp eq ptr %7, null
  br i1 %8, label %19, label %9

9:                                                ; preds = %2
  %10 = getelementptr inbounds nuw %class.vector.155, ptr %5, i32 0, i32 0
  %11 = load ptr, ptr %10, align 8, !tbaa !556
  %12 = getelementptr inbounds i32, ptr %11, i64 -1
  %13 = load i32, ptr %12, align 4, !tbaa !14
  %14 = getelementptr inbounds nuw %class.vector.155, ptr %5, i32 0, i32 0
  %15 = load ptr, ptr %14, align 8, !tbaa !556
  %16 = getelementptr inbounds i32, ptr %15, i64 -2
  %17 = load i32, ptr %16, align 4, !tbaa !14
  %18 = icmp eq i32 %13, %17
  br i1 %18, label %19, label %20

19:                                               ; preds = %9, %2
  call void @_ZN6vectorIPN7datalog11instructionELb0EjE13expand_vectorEv(ptr noundef nonnull align 8 dereferenceable(8) %5)
  br label %20

20:                                               ; preds = %19, %9
  %21 = getelementptr inbounds nuw %class.vector.155, ptr %5, i32 0, i32 0
  %22 = load ptr, ptr %21, align 8, !tbaa !556
  %23 = getelementptr inbounds nuw %class.vector.155, ptr %5, i32 0, i32 0
  %24 = load ptr, ptr %23, align 8, !tbaa !556
  %25 = getelementptr inbounds i32, ptr %24, i64 -1
  %26 = load i32, ptr %25, align 4, !tbaa !14
  %27 = zext i32 %26 to i64
  %28 = getelementptr inbounds nuw ptr, ptr %22, i64 %27
  %29 = load ptr, ptr %4, align 8, !tbaa !555
  %30 = load ptr, ptr %29, align 8, !tbaa !236
  store ptr %30, ptr %28, align 8, !tbaa !236
  %31 = getelementptr inbounds nuw %class.vector.155, ptr %5, i32 0, i32 0
  %32 = load ptr, ptr %31, align 8, !tbaa !556
  %33 = getelementptr inbounds i32, ptr %32, i64 -1
  %34 = load i32, ptr %33, align 4, !tbaa !14
  %35 = add i32 %34, 1
  store i32 %35, ptr %33, align 4, !tbaa !14
  ret ptr %5
}

; Function Attrs: mustprogress uwtable
define linkonce_odr hidden void @_ZN7datalog17instruction_block9push_backEPNS_11instructionE(ptr noundef nonnull align 8 dereferenceable(16) %0, ptr noundef %1) #4 comdat align 2 {
  %3 = alloca ptr, align 8
  %4 = alloca ptr, align 8
  store ptr %0, ptr %3, align 8, !tbaa !12
  store ptr %1, ptr %4, align 8, !tbaa !236
  %5 = load ptr, ptr %3, align 8
  %6 = getelementptr inbounds nuw %"class.datalog::instruction_block", ptr %5, i32 0, i32 0
  %7 = call noundef nonnull align 8 dereferenceable(8) ptr @_ZN6vectorIPN7datalog11instructionELb0EjE9push_backERKS2_(ptr noundef nonnull align 8 dereferenceable(8) %6, ptr noundef nonnull align 8 dereferenceable(8) %4)
  %8 = getelementptr inbounds nuw %"class.datalog::instruction_block", ptr %5, i32 0, i32 1
  %9 = load ptr, ptr %8, align 8, !tbaa !238
  %10 = icmp ne ptr %9, null
  br i1 %10, label %11, label %18

11:                                               ; preds = %2
  %12 = getelementptr inbounds nuw %"class.datalog::instruction_block", ptr %5, i32 0, i32 1
  %13 = load ptr, ptr %12, align 8, !tbaa !238
  %14 = load ptr, ptr %4, align 8, !tbaa !236
  %15 = load ptr, ptr %13, align 8, !tbaa !51
  %16 = getelementptr inbounds ptr, ptr %15, i64 2
  %17 = load ptr, ptr %16, align 8
  call void %17(ptr noundef nonnull align 8 dereferenceable(8) %13, ptr noundef %14)
  br label %18

18:                                               ; preds = %11, %2
  ret void
}

; Function Attrs: mustprogress uwtable
define hidden void @_ZN7datalog8compiler10make_unionEjjjbRNS_17instruction_blockE(ptr noundef nonnull align 8 dereferenceable(192) %0, i32 noundef %1, i32 noundef %2, i32 noundef %3, i1 noundef zeroext %4, ptr noundef nonnull align 8 dereferenceable(16) %5) #4 align 2 {
  %7 = alloca ptr, align 8
  %8 = alloca i32, align 4
  %9 = alloca i32, align 4
  %10 = alloca i32, align 4
  %11 = alloca i8, align 1
  %12 = alloca ptr, align 8
  store ptr %0, ptr %7, align 8, !tbaa !3
  store i32 %1, ptr %8, align 4, !tbaa !14
  store i32 %2, ptr %9, align 4, !tbaa !14
  store i32 %3, ptr %10, align 4, !tbaa !14
  %13 = zext i1 %4 to i8
  store i8 %13, ptr %11, align 1, !tbaa !247
  store ptr %5, ptr %12, align 8, !tbaa !12
  %14 = load i8, ptr %11, align 1, !tbaa !247, !range !248, !noundef !249
  %15 = trunc i8 %14 to i1
  br i1 %15, label %16, label %22

16:                                               ; preds = %6
  %17 = load ptr, ptr %12, align 8, !tbaa !12
  %18 = load i32, ptr %8, align 4, !tbaa !14
  %19 = load i32, ptr %9, align 4, !tbaa !14
  %20 = load i32, ptr %10, align 4, !tbaa !14
  %21 = call noundef ptr @_ZN7datalog11instruction8mk_widenEjjj(i32 noundef %18, i32 noundef %19, i32 noundef %20)
  call void @_ZN7datalog17instruction_block9push_backEPNS_11instructionE(ptr noundef nonnull align 8 dereferenceable(16) %17, ptr noundef %21)
  br label %28

22:                                               ; preds = %6
  %23 = load ptr, ptr %12, align 8, !tbaa !12
  %24 = load i32, ptr %8, align 4, !tbaa !14
  %25 = load i32, ptr %9, align 4, !tbaa !14
  %26 = load i32, ptr %10, align 4, !tbaa !14
  %27 = call noundef ptr @_ZN7datalog11instruction8mk_unionEjjj(i32 noundef %24, i32 noundef %25, i32 noundef %26)
  call void @_ZN7datalog17instruction_block9push_backEPNS_11instructionE(ptr noundef nonnull align 8 dereferenceable(16) %23, ptr noundef %27)
  br label %28

28:                                               ; preds = %22, %16
  ret void
}