; Function Attrs: mustprogress uwtable
define hidden void @_ZN7datalog8compiler10make_unionEjjjbRNS_17instruction_blockE(ptr nonnull readnone align 8 captures(none) %0, i32 noundef %1, i32 noundef %2, i32 noundef %3, i1 noundef zeroext %4, ptr noundef nonnull align 8 dereferenceable(16) %5) local_unnamed_addr #3 align 2 {
  br i1 %4, label %7, label %30

7:                                                ; preds = %6
  %8 = tail call noundef ptr @_ZN7datalog11instruction8mk_widenEjjj(i32 noundef %1, i32 noundef %2, i32 noundef %3)
  %9 = load ptr, ptr %5, align 8, !tbaa !245
  %10 = icmp eq ptr %9, null
  br i1 %10, label %17, label %11

11:                                               ; preds = %7
  %12 = getelementptr inbounds i8, ptr %9, i64 -4
  %13 = load i32, ptr %12, align 4, !tbaa !24
  %14 = getelementptr inbounds i8, ptr %9, i64 -8
  %15 = load i32, ptr %14, align 4, !tbaa !24
  %16 = icmp eq i32 %13, %15
  br i1 %16, label %17, label %_ZN6vectorIPN7datalog11instructionELb0EjE9push_backERKS2_.exit.i

17:                                               ; preds = %11, %7
  tail call void @_ZN6vectorIPN7datalog11instructionELb0EjE13expand_vectorEv(ptr noundef nonnull align 8 dereferenceable(16) %5)
  %.pre.i.i = load ptr, ptr %5, align 8, !tbaa !245
  %.phi.trans.insert.i.i = getelementptr inbounds i8, ptr %.pre.i.i, i64 -4
  %.pre2.i.i = load i32, ptr %.phi.trans.insert.i.i, align 4, !tbaa !24
  br label %_ZN6vectorIPN7datalog11instructionELb0EjE9push_backERKS2_.exit.i

_ZN6vectorIPN7datalog11instructionELb0EjE9push_backERKS2_.exit.i: ; preds = %17, %11
  %18 = phi i32 [ %.pre2.i.i, %17 ], [ %13, %11 ]
  %19 = phi ptr [ %.pre.i.i, %17 ], [ %9, %11 ]
  %20 = getelementptr inbounds i8, ptr %19, i64 -4
  %21 = zext i32 %18 to i64
  %22 = getelementptr inbounds nuw ptr, ptr %19, i64 %21
  store ptr %8, ptr %22, align 8, !tbaa !248
  %23 = add i32 %18, 1
  store i32 %23, ptr %20, align 4, !tbaa !24
  %24 = getelementptr inbounds nuw i8, ptr %5, i64 8
  %25 = load ptr, ptr %24, align 8, !tbaa !250
  %.not.i = icmp eq ptr %25, null
  br i1 %.not.i, label %_ZN7datalog17instruction_block9push_backEPNS_11instructionE.exit, label %26

26:                                               ; preds = %_ZN6vectorIPN7datalog11instructionELb0EjE9push_backERKS2_.exit.i
  %27 = load ptr, ptr %25, align 8, !tbaa !241
  %28 = getelementptr inbounds nuw i8, ptr %27, i64 16
  %29 = load ptr, ptr %28, align 8
  tail call void %29(ptr noundef nonnull align 8 dereferenceable(8) %25, ptr noundef %8)
  br label %_ZN7datalog17instruction_block9push_backEPNS_11instructionE.exit

30:                                               ; preds = %6
  %31 = tail call noundef ptr @_ZN7datalog11instruction8mk_unionEjjj(i32 noundef %1, i32 noundef %2, i32 noundef %3)
  %32 = load ptr, ptr %5, align 8, !tbaa !245
  %33 = icmp eq ptr %32, null
  br i1 %33, label %40, label %34

34:                                               ; preds = %30
  %35 = getelementptr inbounds i8, ptr %32, i64 -4
  %36 = load i32, ptr %35, align 4, !tbaa !24
  %37 = getelementptr inbounds i8, ptr %32, i64 -8
  %38 = load i32, ptr %37, align 4, !tbaa !24
  %39 = icmp eq i32 %36, %38
  br i1 %39, label %40, label %_ZN6vectorIPN7datalog11instructionELb0EjE9push_backERKS2_.exit.i8

40:                                               ; preds = %34, %30
  tail call void @_ZN6vectorIPN7datalog11instructionELb0EjE13expand_vectorEv(ptr noundef nonnull align 8 dereferenceable(16) %5)
  %.pre.i.i10 = load ptr, ptr %5, align 8, !tbaa !245
  %.phi.trans.insert.i.i11 = getelementptr inbounds i8, ptr %.pre.i.i10, i64 -4
  %.pre2.i.i12 = load i32, ptr %.phi.trans.insert.i.i11, align 4, !tbaa !24
  br label %_ZN6vectorIPN7datalog11instructionELb0EjE9push_backERKS2_.exit.i8

_ZN6vectorIPN7datalog11instructionELb0EjE9push_backERKS2_.exit.i8: ; preds = %40, %34
  %41 = phi i32 [ %.pre2.i.i12, %40 ], [ %36, %34 ]
  %42 = phi ptr [ %.pre.i.i10, %40 ], [ %32, %34 ]
  %43 = getelementptr inbounds i8, ptr %42, i64 -4
  %44 = zext i32 %41 to i64
  %45 = getelementptr inbounds nuw ptr, ptr %42, i64 %44
  store ptr %31, ptr %45, align 8, !tbaa !248
  %46 = add i32 %41, 1
  store i32 %46, ptr %43, align 4, !tbaa !24
  %47 = getelementptr inbounds nuw i8, ptr %5, i64 8
  %48 = load ptr, ptr %47, align 8, !tbaa !250
  %.not.i9 = icmp eq ptr %48, null
  br i1 %.not.i9, label %_ZN7datalog17instruction_block9push_backEPNS_11instructionE.exit, label %49

49:                                               ; preds = %_ZN6vectorIPN7datalog11instructionELb0EjE9push_backERKS2_.exit.i8
  %50 = load ptr, ptr %48, align 8, !tbaa !241
  %51 = getelementptr inbounds nuw i8, ptr %50, i64 16
  %52 = load ptr, ptr %51, align 8
  tail call void %52(ptr noundef nonnull align 8 dereferenceable(8) %48, ptr noundef %31)
  br label %_ZN7datalog17instruction_block9push_backEPNS_11instructionE.exit

_ZN7datalog17instruction_block9push_backEPNS_11instructionE.exit: ; preds = %49, %_ZN6vectorIPN7datalog11instructionELb0EjE9push_backERKS2_.exit.i8, %26, %_ZN6vectorIPN7datalog11instructionELb0EjE9push_backERKS2_.exit.i
  ret void
}